target datalayout = "e-m:e-p270:32:32-p271:32:32-p272:64:64-i64:64-i128:128-f80:128-n8:16:32:64-S128"
target triple = "x86_64-pc-linux-gnu"

%"class.ceres::internal::ThreadTokenProvider" = type { %"class.ceres::internal::ConcurrentQueue" }
%"class.ceres::internal::ConcurrentQueue" = type <{ %"class.std::mutex", %"class.std::condition_variable", %"class.std::queue", i8, [7 x i8] }>
%"class.std::mutex" = type { %"class.std::__mutex_base" }
%"class.std::__mutex_base" = type { %union.pthread_mutex_t }
%union.pthread_mutex_t = type { %struct.__pthread_mutex_s }
%struct.__pthread_mutex_s = type { i32, i32, i32, i32, i32, i16, i16, %struct.__pthread_internal_list }
%struct.__pthread_internal_list = type { ptr, ptr }
%"class.std::condition_variable" = type { %"class.std::__condvar" }
%"class.std::__condvar" = type { %union.pthread_cond_t }
%union.pthread_cond_t = type { %struct.__pthread_cond_s }
%struct.__pthread_cond_s = type { %union.__atomic_wide_counter, %union.__atomic_wide_counter, [2 x i32], [2 x i32], i32, i32, [2 x i32] }
%union.__atomic_wide_counter = type { i64 }
%"class.std::queue" = type { %"class.std::deque" }
%"class.std::deque" = type { %"class.std::_Deque_base" }
%"class.std::_Deque_base" = type { %"struct.std::_Deque_base<int, std::allocator<int>>::_Deque_impl" }
%"struct.std::_Deque_base<int, std::allocator<int>>::_Deque_impl" = type { %"struct.std::_Deque_base<int, std::allocator<int>>::_Deque_impl_data" }
%"struct.std::_Deque_base<int, std::allocator<int>>::_Deque_impl_data" = type { ptr, i64, %"struct.std::_Deque_iterator", %"struct.std::_Deque_iterator" }
%"struct.std::_Deque_iterator" = type { ptr, ptr, ptr, ptr }
%"class.absl::lts_20240116::log_internal::Voidify" = type { i8 }
%"class.absl::lts_20240116::log_internal::LogMessageFatal" = type { %"class.absl::lts_20240116::log_internal::LogMessage" }
%"class.absl::lts_20240116::log_internal::LogMessage" = type { %"class.absl::lts_20240116::base_internal::ErrnoSaver", %"class.std::unique_ptr" }
%"class.absl::lts_20240116::base_internal::ErrnoSaver" = type { i32 }
%"class.std::unique_ptr" = type { %"struct.std::__uniq_ptr_data" }
%"struct.std::__uniq_ptr_data" = type { %"class.std::__uniq_ptr_impl" }
%"class.std::__uniq_ptr_impl" = type { %"class.std::tuple" }
%"class.std::tuple" = type { %"struct.std::_Tuple_impl" }
%"struct.std::_Tuple_impl" = type { %"struct.std::_Head_base.1" }
%"struct.std::_Head_base.1" = type { ptr }
%"class.std::basic_string_view" = type { i64, ptr }

@.str = private unnamed_addr constant [136 x i8] c"generated/home/dtcxzyw/WorkSpace/Projects/compilers/llvm-opt-benchmark/bench/ceres/ceres-solver/internal/ceres/thread_token_provider.cc\00", align 1
@.str.1 = private unnamed_addr constant [23 x i8] c"pool_.Wait(&thread_id)\00", align 1

; Function Attrs: noinline noreturn nounwind uwtable
define linkonce_odr hidden void @__clang_call_terminate(ptr noundef %0) #9 comdat {
  %2 = call ptr @__cxa_begin_catch(ptr %0) #16
  call void @_ZSt9terminatev() #18
  unreachable
}

; Function Attrs: mustprogress nounwind uwtable
define linkonce_odr hidden noundef i64 @_ZNSt11char_traitsIcE6lengthEPKc(ptr noundef %0) #4 comdat align 2 {
  %2 = alloca ptr, align 8
  store ptr %0, ptr %2, align 8, !tbaa !39
  %3 = load ptr, ptr %2, align 8, !tbaa !39
  %4 = call i64 @strlen(ptr noundef %3) #16
  ret i64 %4
}

; Function Attrs: mustprogress nounwind uwtable
define linkonce_odr hidden void @_ZNKO4absl12lts_2024011612log_internal7VoidifyaaINS1_10LogMessageEEEvRKT_(ptr noundef nonnull align 1 dereferenceable(1) %0, ptr noundef nonnull align 8 dereferenceable(16) %1) #4 comdat align 2 {
  %3 = alloca ptr, align 8
  %4 = alloca ptr, align 8
  store ptr %0, ptr %3, align 8, !tbaa !33
  store ptr %1, ptr %4, align 8, !tbaa !35
  ret void
}

; Function Attrs: mustprogress nounwind uwtable
define linkonce_odr hidden noundef nonnull align 8 dereferenceable(16) ptr @_ZN4absl12lts_2024011612log_internal10LogMessage14InternalStreamEv(ptr noundef nonnull align 8 dereferenceable(16) %0) #4 comdat align 2 {
  %2 = alloca ptr, align 8
  store ptr %0, ptr %2, align 8, !tbaa !35
  %3 = load ptr, ptr %2, align 8
  ret ptr %3
}

; Function Attrs: mustprogress nounwind uwtable
define linkonce_odr hidden void @_ZNSt17basic_string_viewIcSt11char_traitsIcEEC2EPKc(ptr noundef nonnull align 8 dereferenceable(16) %0, ptr noundef nonnull %1) unnamed_addr #4 comdat align 2 personality ptr @__gxx_personality_v0 {
  %3 = alloca ptr, align 8
  %4 = alloca ptr, align 8
  store ptr %0, ptr %3, align 8, !tbaa !37
  store ptr %1, ptr %4, align 8, !tbaa !39
  %5 = load ptr, ptr %3, align 8
  %6 = getelementptr inbounds nuw %"class.std::basic_string_view", ptr %5, i32 0, i32 0
  %7 = load ptr, ptr %4, align 8, !tbaa !39
  %8 = invoke noundef i64 @_ZNSt11char_traitsIcE6lengthEPKc(ptr noundef %7)
          to label %9 unwind label %12

9:                                                ; preds = %2
  store i64 %8, ptr %6, align 8, !tbaa !41
  %10 = getelementptr inbounds nuw %"class.std::basic_string_view", ptr %5, i32 0, i32 1
  %11 = load ptr, ptr %4, align 8, !tbaa !39
  store ptr %11, ptr %10, align 8, !tbaa !43
  ret void

12:                                               ; preds = %2
  %13 = landingpad { ptr, i32 }
          catch ptr null
  %14 = extractvalue { ptr, i32 } %13, 0
  call void @__clang_call_terminate(ptr %14) #18
  unreachable
}

; Function Attrs: mustprogress uwtable
define hidden noundef i32 @_ZN5ceres8internal19ThreadTokenProvider7AcquireEv(ptr noundef nonnull align 8 dereferenceable(176) %0) #0 align 2 personality ptr @__gxx_personality_v0 {
  %2 = alloca ptr, align 8
  %3 = alloca i32, align 4
  %4 = alloca %"class.absl::lts_20240116::log_internal::Voidify", align 1
  %5 = alloca %"class.absl::lts_20240116::log_internal::LogMessageFatal", align 8
  %6 = alloca i1, align 1
  %7 = alloca %"class.std::basic_string_view", align 8
  %8 = alloca i1, align 1
  %9 = alloca ptr, align 8
  %10 = alloca i32, align 4
  store ptr %0, ptr %2, align 8, !tbaa !3
  %11 = load ptr, ptr %2, align 8
  call void @llvm.lifetime.start.p0(i64 4, ptr %3) #16
  %12 = getelementptr inbounds nuw %"class.ceres::internal::ThreadTokenProvider", ptr %11, i32 0, i32 0
  %13 = call noundef zeroext i1 @_ZN5ceres8internal15ConcurrentQueueIiE4WaitEPi(ptr noundef nonnull align 8 dereferenceable(169) %12, ptr noundef %3)
  %14 = xor i1 %13, true
  %15 = zext i1 %14 to i64
  %16 = call i64 @llvm.expect.i64(i64 %15, i64 0)
  %17 = icmp ne i64 %16, 0
  call void @llvm.lifetime.start.p0(i64 1, ptr %4) #16
  store i1 false, ptr %6, align 1
  store i1 false, ptr %8, align 1
  br i1 %17, label %19, label %18

18:                                               ; preds = %1
  br label %27

19:                                               ; preds = %1
  call void @llvm.lifetime.start.p0(i64 16, ptr %5) #16
  store i1 true, ptr %6, align 1
  call void @_ZNSt17basic_string_viewIcSt11char_traitsIcEEC2EPKc(ptr noundef nonnull align 8 dereferenceable(16) %7, ptr noundef @.str.1) #16
  %20 = getelementptr inbounds nuw { i64, ptr }, ptr %7, i32 0, i32 0
  %21 = load i64, ptr %20, align 8
  %22 = getelementptr inbounds nuw { i64, ptr }, ptr %7, i32 0, i32 1
  %23 = load ptr, ptr %22, align 8
  call void @_ZN4absl12lts_2024011612log_internal15LogMessageFatalC1EPKciSt17basic_string_viewIcSt11char_traitsIcEE(ptr noundef nonnull align 8 dereferenceable(16) %5, ptr noundef @.str, i32 noundef 45, i64 %21, ptr %23) #17
  store i1 true, ptr %8, align 1
  %24 = invoke noundef nonnull align 8 dereferenceable(16) ptr @_ZN4absl12lts_2024011612log_internal10LogMessage14InternalStreamEv(ptr noundef nonnull align 8 dereferenceable(16) %5)
          to label %25 unwind label %30

25:                                               ; preds = %19
  invoke void @_ZNKO4absl12lts_2024011612log_internal7VoidifyaaINS1_10LogMessageEEEvRKT_(ptr noundef nonnull align 1 dereferenceable(1) %4, ptr noundef nonnull align 8 dereferenceable(16) %24)
          to label %26 unwind label %30

26:                                               ; preds = %25
  br label %27

27:                                               ; preds = %26, %18
  %28 = load i1, ptr %8, align 1
  br i1 %28, label %29, label %36

29:                                               ; preds = %27
  call void @_ZN4absl12lts_2024011612log_internal15LogMessageFatalD1Ev(ptr noundef nonnull align 8 dereferenceable(16) %5) #18
  unreachable

30:                                               ; preds = %25, %19
  %31 = landingpad { ptr, i32 }
          cleanup
  %32 = extractvalue { ptr, i32 } %31, 0
  store ptr %32, ptr %9, align 8
  %33 = extractvalue { ptr, i32 } %31, 1
  store i32 %33, ptr %10, align 4
  %34 = load i1, ptr %8, align 1
  br i1 %34, label %41, label %43

35:                                               ; No predecessors!
  br label %36

36:                                               ; preds = %35, %27
  %37 = load i1, ptr %6, align 1
  br i1 %37, label %38, label %39

38:                                               ; preds = %36
  call void @llvm.lifetime.end.p0(i64 16, ptr %5) #16
  br label %39

39:                                               ; preds = %38, %36
  call void @llvm.lifetime.end.p0(i64 1, ptr %4) #16
  %40 = load i32, ptr %3, align 4, !tbaa !8
  call void @llvm.lifetime.end.p0(i64 4, ptr %3) #16
  ret i32 %40

41:                                               ; preds = %30
  call void @_ZN4absl12lts_2024011612log_internal15LogMessageFatalD1Ev(ptr noundef nonnull align 8 dereferenceable(16) %5) #18
  unreachable

42:                                               ; No predecessors!
  br label %43

43:                                               ; preds = %42, %30
  %44 = load i1, ptr %6, align 1
  br i1 %44, label %45, label %46

45:                                               ; preds = %43
  call void @llvm.lifetime.end.p0(i64 16, ptr %5) #16
  br label %46

46:                                               ; preds = %45, %43
  call void @llvm.lifetime.end.p0(i64 1, ptr %4) #16
  call void @llvm.lifetime.end.p0(i64 4, ptr %3) #16
  br label %47

47:                                               ; preds = %46
  %48 = load ptr, ptr %9, align 8
  %49 = load i32, ptr %10, align 4
  %50 = insertvalue { ptr, i32 } poison, ptr %48, 0
  %51 = insertvalue { ptr, i32 } %50, i32 %49, 1
  resume { ptr, i32 } %51
}