; Function Attrs: mustprogress uwtable
define hidden noundef i32 @_ZN5ceres8internal19ThreadTokenProvider7AcquireEv(ptr noundef nonnull align 8 dereferenceable(176) %0) local_unnamed_addr #0 align 2 personality ptr @__gxx_personality_v0 {
  %2 = alloca i32, align 4
  %3 = alloca %"class.absl::lts_20240116::log_internal::LogMessageFatal", align 8
  call void @llvm.lifetime.start.p0(i64 4, ptr nonnull %2) #15
  %4 = call noundef zeroext i1 @_ZN5ceres8internal15ConcurrentQueueIiE4WaitEPi(ptr noundef nonnull align 8 dereferenceable(169) %0, ptr noundef nonnull %2)
  br i1 %4, label %.critedge, label %5, !prof !34

5:                                                ; preds = %1
  call void @llvm.lifetime.start.p0(i64 16, ptr nonnull %3) #15
  call void @_ZN4absl12lts_2024011612log_internal15LogMessageFatalC1EPKciSt17basic_string_viewIcSt11char_traitsIcEE(ptr noundef nonnull align 8 dereferenceable(16) %3, ptr noundef nonnull @.str, i32 noundef 45, i64 22, ptr nonnull @.str.1) #18
  call void @_ZN4absl12lts_2024011612log_internal15LogMessageFatalD1Ev(ptr noundef nonnull align 8 dereferenceable(16) %3) #19
  unreachable

.critedge:                                        ; preds = %1
  %6 = load i32, ptr %2, align 4, !tbaa !22
  call void @llvm.lifetime.end.p0(i64 4, ptr nonnull %2) #15
  ret i32 %6
}